(lp0
(S'cppflags'
p1
ccopy_reg
_reconstructor
p2
(cino.utils
SpaceList
p3
c__builtin__
list
p4
(lp5
S'-mmcu=atmega328p'
p6
aS'-DF_CPU=16000000L'
p7
aS'-DARDUINO=105'
p8
aS'-I/Applications/Arduino.app/Contents/Resources/Java/hardware/arduino/cores/arduino'
p9
aS'-ffunction-sections'
p10
aS'-fdata-sections'
p11
aS'-g'
p12
aS'-Os'
p13
aS'-w'
p14
aS'-I/Applications/Arduino.app/Contents/Resources/Java/hardware/arduino/variants/standard'
p15
aS'-I/Applications/Arduino.app/Contents/Resources/Java/hardware/arduino/cores/arduino'
p16
aS'-I/Applications/Arduino.app/Contents/Resources/Java/hardware/arduino/cores/arduino/avr-libc'
p17
atp18
Rp19
tp20
a(S'cxx'
p21
S'/Applications/Arduino.app/Contents/Resources/Java/hardware/tools/avr/bin/avr-g++'
p22
tp23
a(S'build_dir'
p24
S'.build/uno'
p25
tp26
a(S'avrdude'
p27
S'/Applications/Arduino.app/Contents/Resources/Java/hardware/tools/avr/bin/avrdude'
p28
tp29
a(S'ar'
p30
S'/Applications/Arduino.app/Contents/Resources/Java/hardware/tools/avr/bin/avr-ar'
p31
tp32
a(S'names'
p33
(dp34
S'cpp'
p35
S'%s.cpp'
p36
sS'obj'
p37
S'%s.o'
p38
sS'lib'
p39
S'lib%s.a'
p40
sS'deps'
p41
S'%s.d'
p42
stp43
a(S'ldflags'
p44
g2
(g3
g4
(lp45
g6
aS'-Wl,-Os'
p46
aS'-Wl,--gc-sections'
p47
atp48
Rp49
tp50
a(S'arduino_lib_version'
p51
g2
(cino.environment
Version
p52
c__builtin__
tuple
p53
(I1
I0
I5
tp54
tp55
Rp56
tp57
a(S'objcopy'
p58
S'/Applications/Arduino.app/Contents/Resources/Java/hardware/tools/avr/bin/avr-objcopy'
p59
tp60
a(S'board_models'
p61
cino.environment
BoardModels
p62
((lp63
(lp64
S'uno'
p65
a(dp66
S'build'
p67
(dp68
S'core'
p69
S'arduino'
p70
sS'mcu'
p71
S'atmega328p'
p72
sS'f_cpu'
p73
S'16000000L'
p74
sS'variant'
p75
S'standard'
p76
ssS'bootloader'
p77
(dp78
S'extended_fuses'
p79
S'0x05'
p80
sS'high_fuses'
p81
S'0xde'
p82
sS'low_fuses'
p83
S'0xff'
p84
sS'lock_bits'
p85
S'0x0F'
p86
sS'file'
p87
S'optiboot_atmega328.hex'
p88
sS'path'
p89
S'optiboot'
p90
sS'unlock_bits'
p91
S'0x3F'
p92
ssS'upload'
p93
(dp94
S'protocol'
p95
S'arduino'
p96
sS'maximum_size'
p97
S'32256'
p98
sS'speed'
p99
S'115200'
p100
ssS'name'
p101
S'Arduino Uno'
p102
saa(lp103
S'atmega328'
p104
a(dp105
S'build'
p106
(dp107
S'core'
p108
S'arduino'
p109
sS'mcu'
p110
S'atmega328p'
p111
sS'f_cpu'
p112
S'16000000L'
p113
sS'variant'
p114
S'standard'
p115
ssS'bootloader'
p116
(dp117
S'extended_fuses'
p118
S'0x05'
p119
sS'high_fuses'
p120
S'0xDA'
p121
sS'low_fuses'
p122
S'0xFF'
p123
sS'lock_bits'
p124
S'0x0F'
p125
sS'file'
p126
S'ATmegaBOOT_168_atmega328.hex'
p127
sS'path'
p128
S'atmega'
p129
sS'unlock_bits'
p130
S'0x3F'
p131
ssS'upload'
p132
(dp133
S'protocol'
p134
S'arduino'
p135
sS'maximum_size'
p136
S'30720'
p137
sS'speed'
p138
S'57600'
p139
ssS'name'
p140
S'Arduino Duemilanove w/ ATmega328'
p141
saa(lp142
S'diecimila'
p143
a(dp144
S'build'
p145
(dp146
S'core'
p147
S'arduino'
p148
sS'mcu'
p149
S'atmega168'
p150
sS'f_cpu'
p151
S'16000000L'
p152
sS'variant'
p153
S'standard'
p154
ssS'bootloader'
p155
(dp156
S'extended_fuses'
p157
S'0x00'
p158
sS'high_fuses'
p159
S'0xdd'
p160
sS'low_fuses'
p161
S'0xff'
p162
sS'lock_bits'
p163
S'0x0F'
p164
sS'file'
p165
S'ATmegaBOOT_168_diecimila.hex'
p166
sS'path'
p167
S'atmega'
p168
sS'unlock_bits'
p169
S'0x3F'
p170
ssS'upload'
p171
(dp172
S'protocol'
p173
S'arduino'
p174
sS'maximum_size'
p175
S'14336'
p176
sS'speed'
p177
S'19200'
p178
ssS'name'
p179
S'Arduino Diecimila or Duemilanove w/ ATmega168'
p180
saa(lp181
S'nano328'
p182
a(dp183
S'build'
p184
(dp185
S'core'
p186
S'arduino'
p187
sS'mcu'
p188
S'atmega328p'
p189
sS'f_cpu'
p190
S'16000000L'
p191
sS'variant'
p192
S'eightanaloginputs'
p193
ssS'bootloader'
p194
(dp195
S'extended_fuses'
p196
S'0x05'
p197
sS'high_fuses'
p198
S'0xDA'
p199
sS'low_fuses'
p200
S'0xFF'
p201
sS'lock_bits'
p202
S'0x0F'
p203
sS'file'
p204
S'ATmegaBOOT_168_atmega328.hex'
p205
sS'path'
p206
S'atmega'
p207
sS'unlock_bits'
p208
S'0x3F'
p209
ssS'upload'
p210
(dp211
S'protocol'
p212
S'arduino'
p213
sS'maximum_size'
p214
S'30720'
p215
sS'speed'
p216
S'57600'
p217
ssS'name'
p218
S'Arduino Nano w/ ATmega328'
p219
saa(lp220
S'nano'
p221
a(dp222
S'build'
p223
(dp224
S'core'
p225
S'arduino'
p226
sS'mcu'
p227
S'atmega168'
p228
sS'f_cpu'
p229
S'16000000L'
p230
sS'variant'
p231
S'eightanaloginputs'
p232
ssS'bootloader'
p233
(dp234
S'extended_fuses'
p235
S'0x00'
p236
sS'high_fuses'
p237
S'0xdd'
p238
sS'low_fuses'
p239
S'0xff'
p240
sS'lock_bits'
p241
S'0x0F'
p242
sS'file'
p243
S'ATmegaBOOT_168_diecimila.hex'
p244
sS'path'
p245
S'atmega'
p246
sS'unlock_bits'
p247
S'0x3F'
p248
ssS'upload'
p249
(dp250
S'protocol'
p251
S'arduino'
p252
sS'maximum_size'
p253
S'14336'
p254
sS'speed'
p255
S'19200'
p256
ssS'name'
p257
S'Arduino Nano w/ ATmega168'
p258
saa(lp259
S'mega2560'
p260
a(dp261
S'build'
p262
(dp263
S'core'
p264
S'arduino'
p265
sS'mcu'
p266
S'atmega2560'
p267
sS'f_cpu'
p268
S'16000000L'
p269
sS'variant'
p270
S'mega'
p271
ssS'bootloader'
p272
(dp273
S'extended_fuses'
p274
S'0xFD'
p275
sS'high_fuses'
p276
S'0xD8'
p277
sS'low_fuses'
p278
S'0xFF'
p279
sS'lock_bits'
p280
S'0x0F'
p281
sS'file'
p282
S'stk500boot_v2_mega2560.hex'
p283
sS'path'
p284
S'stk500v2'
p285
sS'unlock_bits'
p286
S'0x3F'
p287
ssS'upload'
p288
(dp289
S'protocol'
p290
S'wiring'
p291
sS'maximum_size'
p292
S'258048'
p293
sS'speed'
p294
S'115200'
p295
ssS'name'
p296
S'Arduino Mega 2560 or Mega ADK'
p297
saa(lp298
S'mega'
p299
a(dp300
S'build'
p301
(dp302
S'core'
p303
S'arduino'
p304
sS'mcu'
p305
S'atmega1280'
p306
sS'f_cpu'
p307
S'16000000L'
p308
sS'variant'
p309
S'mega'
p310
ssS'bootloader'
p311
(dp312
S'extended_fuses'
p313
S'0xF5'
p314
sS'high_fuses'
p315
S'0xDA'
p316
sS'low_fuses'
p317
S'0xFF'
p318
sS'lock_bits'
p319
S'0x0F'
p320
sS'file'
p321
S'ATmegaBOOT_168_atmega1280.hex'
p322
sS'path'
p323
S'atmega'
p324
sS'unlock_bits'
p325
S'0x3F'
p326
ssS'upload'
p327
(dp328
S'protocol'
p329
S'arduino'
p330
sS'maximum_size'
p331
S'126976'
p332
sS'speed'
p333
S'57600'
p334
ssS'name'
p335
S'Arduino Mega (ATmega1280)'
p336
saa(lp337
S'leonardo'
p338
a(dp339
S'build'
p340
(dp341
S'core'
p342
S'arduino'
p343
sS'f_cpu'
p344
S'16000000L'
p345
sS'vid'
p346
S'0x2341'
p347
sS'pid'
p348
S'0x8036'
p349
sS'variant'
p350
S'leonardo'
p351
sS'mcu'
p352
S'atmega32u4'
p353
ssS'bootloader'
p354
(dp355
S'extended_fuses'
p356
S'0xcb'
p357
sS'high_fuses'
p358
S'0xd8'
p359
sS'low_fuses'
p360
S'0xff'
p361
sS'lock_bits'
p362
S'0x2F'
p363
sS'file'
p364
S'Caterina-Leonardo.hex'
p365
sS'path'
p366
S'caterina'
p367
sS'unlock_bits'
p368
S'0x3F'
p369
ssS'upload'
p370
(dp371
S'protocol'
p372
S'avr109'
p373
sS'maximum_size'
p374
S'28672'
p375
sS'speed'
p376
S'57600'
p377
sS'disable_flushing'
p378
S'true'
p379
ssS'name'
p380
S'Arduino Leonardo'
p381
saa(lp382
S'esplora'
p383
a(dp384
S'build'
p385
(dp386
S'core'
p387
S'arduino'
p388
sS'f_cpu'
p389
S'16000000L'
p390
sS'vid'
p391
S'0x2341'
p392
sS'pid'
p393
S'0x803C'
p394
sS'variant'
p395
S'leonardo'
p396
sS'mcu'
p397
S'atmega32u4'
p398
ssS'bootloader'
p399
(dp400
S'extended_fuses'
p401
S'0xcb'
p402
sS'high_fuses'
p403
S'0xd8'
p404
sS'low_fuses'
p405
S'0xff'
p406
sS'lock_bits'
p407
S'0x2F'
p408
sS'file'
p409
S'Caterina-Esplora.hex'
p410
sS'path'
p411
S'caterina'
p412
sS'unlock_bits'
p413
S'0x3F'
p414
ssS'upload'
p415
(dp416
S'protocol'
p417
S'avr109'
p418
sS'maximum_size'
p419
S'28672'
p420
sS'speed'
p421
S'57600'
p422
sS'disable_flushing'
p423
S'true'
p424
ssS'name'
p425
S'Arduino Esplora'
p426
saa(lp427
S'micro'
p428
a(dp429
S'build'
p430
(dp431
S'core'
p432
S'arduino'
p433
sS'f_cpu'
p434
S'16000000L'
p435
sS'vid'
p436
S'0x2341'
p437
sS'pid'
p438
S'0x8037'
p439
sS'variant'
p440
S'micro'
p441
sS'mcu'
p442
S'atmega32u4'
p443
ssS'bootloader'
p444
(dp445
S'extended_fuses'
p446
S'0xcb'
p447
sS'high_fuses'
p448
S'0xd8'
p449
sS'low_fuses'
p450
S'0xff'
p451
sS'lock_bits'
p452
S'0x2F'
p453
sS'file'
p454
S'Caterina-Micro.hex'
p455
sS'path'
p456
S'caterina'
p457
sS'unlock_bits'
p458
S'0x3F'
p459
ssS'upload'
p460
(dp461
S'protocol'
p462
S'avr109'
p463
sS'maximum_size'
p464
S'28672'
p465
sS'speed'
p466
S'57600'
p467
sS'disable_flushing'
p468
S'true'
p469
ssS'name'
p470
S'Arduino Micro'
p471
saa(lp472
S'mini328'
p473
a(dp474
S'build'
p475
(dp476
S'core'
p477
S'arduino'
p478
sS'mcu'
p479
S'atmega328p'
p480
sS'f_cpu'
p481
S'16000000L'
p482
sS'variant'
p483
S'eightanaloginputs'
p484
ssS'bootloader'
p485
(dp486
S'extended_fuses'
p487
S'0x05'
p488
sS'high_fuses'
p489
S'0xd8'
p490
sS'low_fuses'
p491
S'0xff'
p492
sS'lock_bits'
p493
S'0x0F'
p494
sS'file'
p495
S'optiboot_atmega328-Mini.hex'
p496
sS'path'
p497
S'optiboot'
p498
sS'unlock_bits'
p499
S'0x3F'
p500
ssS'upload'
p501
(dp502
S'protocol'
p503
S'arduino'
p504
sS'maximum_size'
p505
S'28672'
p506
sS'speed'
p507
S'115200'
p508
ssS'name'
p509
S'Arduino Mini w/ ATmega328'
p510
saa(lp511
S'mini'
p512
a(dp513
S'build'
p514
(dp515
S'core'
p516
S'arduino'
p517
sS'mcu'
p518
S'atmega168'
p519
sS'f_cpu'
p520
S'16000000L'
p521
sS'variant'
p522
S'eightanaloginputs'
p523
ssS'bootloader'
p524
(dp525
S'extended_fuses'
p526
S'0x00'
p527
sS'high_fuses'
p528
S'0xdd'
p529
sS'low_fuses'
p530
S'0xff'
p531
sS'lock_bits'
p532
S'0x0F'
p533
sS'file'
p534
S'ATmegaBOOT_168_ng.hex'
p535
sS'path'
p536
S'atmega'
p537
sS'unlock_bits'
p538
S'0x3F'
p539
ssS'upload'
p540
(dp541
S'protocol'
p542
S'arduino'
p543
sS'maximum_size'
p544
S'14336'
p545
sS'speed'
p546
S'19200'
p547
ssS'name'
p548
S'Arduino Mini w/ ATmega168'
p549
saa(lp550
S'ethernet'
p551
a(dp552
S'build'
p553
(dp554
S'variant'
p555
S'standard'
p556
sS'mcu'
p557
S'atmega328p'
p558
sS'f_cpu'
p559
S'16000000L'
p560
sS'core'
p561
S'arduino'
p562
ssS'bootloader'
p563
(dp564
S'extended_fuses'
p565
S'0x05'
p566
sS'high_fuses'
p567
S'0xde'
p568
sS'low_fuses'
p569
S'0xff'
p570
sS'lock_bits'
p571
S'0x0F'
p572
sS'file'
p573
S'optiboot_atmega328.hex'
p574
sS'path'
p575
S'optiboot'
p576
sS'unlock_bits'
p577
S'0x3F'
p578
ssS'upload'
p579
(dp580
S'protocol'
p581
S'arduino'
p582
sS'maximum_size'
p583
S'32256'
p584
sS'speed'
p585
S'115200'
p586
ssS'name'
p587
S'Arduino Ethernet'
p588
saa(lp589
S'fio'
p590
a(dp591
S'build'
p592
(dp593
S'core'
p594
S'arduino'
p595
sS'mcu'
p596
S'atmega328p'
p597
sS'f_cpu'
p598
S'8000000L'
p599
sS'variant'
p600
S'eightanaloginputs'
p601
ssS'bootloader'
p602
(dp603
S'extended_fuses'
p604
S'0x05'
p605
sS'high_fuses'
p606
S'0xDA'
p607
sS'low_fuses'
p608
S'0xFF'
p609
sS'lock_bits'
p610
S'0x0F'
p611
sS'file'
p612
S'ATmegaBOOT_168_atmega328_pro_8MHz.hex'
p613
sS'path'
p614
S'arduino:atmega'
p615
sS'unlock_bits'
p616
S'0x3F'
p617
ssS'upload'
p618
(dp619
S'protocol'
p620
S'arduino'
p621
sS'maximum_size'
p622
S'30720'
p623
sS'speed'
p624
S'57600'
p625
ssS'name'
p626
S'Arduino Fio'
p627
saa(lp628
S'bt328'
p629
a(dp630
S'build'
p631
(dp632
S'core'
p633
S'arduino'
p634
sS'mcu'
p635
S'atmega328p'
p636
sS'f_cpu'
p637
S'16000000L'
p638
sS'variant'
p639
S'eightanaloginputs'
p640
ssS'bootloader'
p641
(dp642
S'extended_fuses'
p643
S'0x05'
p644
sS'high_fuses'
p645
S'0xd8'
p646
sS'low_fuses'
p647
S'0xff'
p648
sS'lock_bits'
p649
S'0x0F'
p650
sS'file'
p651
S'ATmegaBOOT_168_atmega328_bt.hex'
p652
sS'path'
p653
S'bt'
p654
sS'unlock_bits'
p655
S'0x3F'
p656
ssS'upload'
p657
(dp658
S'protocol'
p659
S'arduino'
p660
sS'maximum_size'
p661
S'28672'
p662
sS'speed'
p663
S'19200'
p664
sS'disable_flushing'
p665
S'true'
p666
ssS'name'
p667
S'Arduino BT w/ ATmega328'
p668
saa(lp669
S'bt'
p670
a(dp671
S'build'
p672
(dp673
S'core'
p674
S'arduino'
p675
sS'mcu'
p676
S'atmega168'
p677
sS'f_cpu'
p678
S'16000000L'
p679
sS'variant'
p680
S'eightanaloginputs'
p681
ssS'bootloader'
p682
(dp683
S'extended_fuses'
p684
S'0x00'
p685
sS'high_fuses'
p686
S'0xdd'
p687
sS'low_fuses'
p688
S'0xff'
p689
sS'lock_bits'
p690
S'0x0F'
p691
sS'file'
p692
S'ATmegaBOOT_168.hex'
p693
sS'path'
p694
S'bt'
p695
sS'unlock_bits'
p696
S'0x3F'
p697
ssS'upload'
p698
(dp699
S'protocol'
p700
S'arduino'
p701
sS'maximum_size'
p702
S'14336'
p703
sS'speed'
p704
S'19200'
p705
sS'disable_flushing'
p706
S'true'
p707
ssS'name'
p708
S'Arduino BT w/ ATmega168'
p709
saa(lp710
S'LilyPadUSB'
p711
a(dp712
S'build'
p713
(dp714
S'core'
p715
S'arduino'
p716
sS'f_cpu'
p717
S'8000000L'
p718
sS'vid'
p719
S'0x1B4F'
p720
sS'pid'
p721
S'0x9208'
p722
sS'variant'
p723
S'leonardo'
p724
sS'mcu'
p725
S'atmega32u4'
p726
ssS'bootloader'
p727
(dp728
S'extended_fuses'
p729
S'0xce'
p730
sS'high_fuses'
p731
S'0xd8'
p732
sS'low_fuses'
p733
S'0xff'
p734
sS'lock_bits'
p735
S'0x2F'
p736
sS'file'
p737
S'Caterina-LilyPadUSB.hex'
p738
sS'path'
p739
S'caterina-LilyPadUSB'
p740
sS'unlock_bits'
p741
S'0x3F'
p742
ssS'upload'
p743
(dp744
S'protocol'
p745
S'avr109'
p746
sS'maximum_size'
p747
S'28672'
p748
sS'speed'
p749
S'57600'
p750
sS'disable_flushing'
p751
S'true'
p752
ssS'name'
p753
S'LilyPad Arduino USB'
p754
saa(lp755
S'lilypad328'
p756
a(dp757
S'build'
p758
(dp759
S'core'
p760
S'arduino'
p761
sS'mcu'
p762
S'atmega328p'
p763
sS'f_cpu'
p764
S'8000000L'
p765
sS'variant'
p766
S'standard'
p767
ssS'bootloader'
p768
(dp769
S'extended_fuses'
p770
S'0x05'
p771
sS'high_fuses'
p772
S'0xDA'
p773
sS'low_fuses'
p774
S'0xFF'
p775
sS'lock_bits'
p776
S'0x0F'
p777
sS'file'
p778
S'ATmegaBOOT_168_atmega328_pro_8MHz.hex'
p779
sS'path'
p780
S'atmega'
p781
sS'unlock_bits'
p782
S'0x3F'
p783
ssS'upload'
p784
(dp785
S'protocol'
p786
S'arduino'
p787
sS'maximum_size'
p788
S'30720'
p789
sS'speed'
p790
S'57600'
p791
ssS'name'
p792
S'LilyPad Arduino w/ ATmega328'
p793
saa(lp794
S'lilypad'
p795
a(dp796
S'build'
p797
(dp798
S'core'
p799
S'arduino'
p800
sS'mcu'
p801
S'atmega168'
p802
sS'f_cpu'
p803
S'8000000L'
p804
sS'variant'
p805
S'standard'
p806
ssS'bootloader'
p807
(dp808
S'extended_fuses'
p809
S'0x00'
p810
sS'high_fuses'
p811
S'0xdd'
p812
sS'low_fuses'
p813
S'0xe2'
p814
sS'lock_bits'
p815
S'0x0F'
p816
sS'file'
p817
S'LilyPadBOOT_168.hex'
p818
sS'path'
p819
S'lilypad'
p820
sS'unlock_bits'
p821
S'0x3F'
p822
ssS'upload'
p823
(dp824
S'protocol'
p825
S'arduino'
p826
sS'maximum_size'
p827
S'14336'
p828
sS'speed'
p829
S'19200'
p830
ssS'name'
p831
S'LilyPad Arduino w/ ATmega168'
p832
saa(lp833
S'pro5v328'
p834
a(dp835
S'build'
p836
(dp837
S'core'
p838
S'arduino'
p839
sS'mcu'
p840
S'atmega328p'
p841
sS'f_cpu'
p842
S'16000000L'
p843
sS'variant'
p844
S'standard'
p845
ssS'bootloader'
p846
(dp847
S'extended_fuses'
p848
S'0x05'
p849
sS'high_fuses'
p850
S'0xDA'
p851
sS'low_fuses'
p852
S'0xFF'
p853
sS'lock_bits'
p854
S'0x0F'
p855
sS'file'
p856
S'ATmegaBOOT_168_atmega328.hex'
p857
sS'path'
p858
S'atmega'
p859
sS'unlock_bits'
p860
S'0x3F'
p861
ssS'upload'
p862
(dp863
S'protocol'
p864
S'arduino'
p865
sS'maximum_size'
p866
S'30720'
p867
sS'speed'
p868
S'57600'
p869
ssS'name'
p870
S'Arduino Pro or Pro Mini (5V, 16 MHz) w/ ATmega328'
p871
saa(lp872
S'pro5v'
p873
a(dp874
S'build'
p875
(dp876
S'core'
p877
S'arduino'
p878
sS'mcu'
p879
S'atmega168'
p880
sS'f_cpu'
p881
S'16000000L'
p882
sS'variant'
p883
S'standard'
p884
ssS'bootloader'
p885
(dp886
S'extended_fuses'
p887
S'0x00'
p888
sS'high_fuses'
p889
S'0xdd'
p890
sS'low_fuses'
p891
S'0xff'
p892
sS'lock_bits'
p893
S'0x0F'
p894
sS'file'
p895
S'ATmegaBOOT_168_diecimila.hex'
p896
sS'path'
p897
S'atmega'
p898
sS'unlock_bits'
p899
S'0x3F'
p900
ssS'upload'
p901
(dp902
S'protocol'
p903
S'arduino'
p904
sS'maximum_size'
p905
S'14336'
p906
sS'speed'
p907
S'19200'
p908
ssS'name'
p909
S'Arduino Pro or Pro Mini (5V, 16 MHz) w/ ATmega168'
p910
saa(lp911
S'pro328'
p912
a(dp913
S'build'
p914
(dp915
S'core'
p916
S'arduino'
p917
sS'mcu'
p918
S'atmega328p'
p919
sS'f_cpu'
p920
S'8000000L'
p921
sS'variant'
p922
S'standard'
p923
ssS'bootloader'
p924
(dp925
S'extended_fuses'
p926
S'0x05'
p927
sS'high_fuses'
p928
S'0xDA'
p929
sS'low_fuses'
p930
S'0xFF'
p931
sS'lock_bits'
p932
S'0x0F'
p933
sS'file'
p934
S'ATmegaBOOT_168_atmega328_pro_8MHz.hex'
p935
sS'path'
p936
S'atmega'
p937
sS'unlock_bits'
p938
S'0x3F'
p939
ssS'upload'
p940
(dp941
S'protocol'
p942
S'arduino'
p943
sS'maximum_size'
p944
S'30720'
p945
sS'speed'
p946
S'57600'
p947
ssS'name'
p948
S'Arduino Pro or Pro Mini (3.3V, 8 MHz) w/ ATmega328'
p949
saa(lp950
S'pro'
p951
a(dp952
S'build'
p953
(dp954
S'core'
p955
S'arduino'
p956
sS'mcu'
p957
S'atmega168'
p958
sS'f_cpu'
p959
S'8000000L'
p960
sS'variant'
p961
S'standard'
p962
ssS'bootloader'
p963
(dp964
S'extended_fuses'
p965
S'0x00'
p966
sS'high_fuses'
p967
S'0xdd'
p968
sS'low_fuses'
p969
S'0xc6'
p970
sS'lock_bits'
p971
S'0x0F'
p972
sS'file'
p973
S'ATmegaBOOT_168_pro_8MHz.hex'
p974
sS'path'
p975
S'atmega'
p976
sS'unlock_bits'
p977
S'0x3F'
p978
ssS'upload'
p979
(dp980
S'protocol'
p981
S'arduino'
p982
sS'maximum_size'
p983
S'14336'
p984
sS'speed'
p985
S'19200'
p986
ssS'name'
p987
S'Arduino Pro or Pro Mini (3.3V, 8 MHz) w/ ATmega168'
p988
saa(lp989
S'atmega168'
p990
a(dp991
S'build'
p992
(dp993
S'core'
p994
S'arduino'
p995
sS'mcu'
p996
S'atmega168'
p997
sS'f_cpu'
p998
S'16000000L'
p999
sS'variant'
p1000
S'standard'
p1001
ssS'bootloader'
p1002
(dp1003
S'extended_fuses'
p1004
S'0x00'
p1005
sS'high_fuses'
p1006
S'0xdd'
p1007
sS'low_fuses'
p1008
S'0xff'
p1009
sS'lock_bits'
p1010
S'0x0F'
p1011
sS'file'
p1012
S'ATmegaBOOT_168_ng.hex'
p1013
sS'path'
p1014
S'atmega'
p1015
sS'unlock_bits'
p1016
S'0x3F'
p1017
ssS'upload'
p1018
(dp1019
S'protocol'
p1020
S'arduino'
p1021
sS'maximum_size'
p1022
S'14336'
p1023
sS'speed'
p1024
S'19200'
p1025
ssS'name'
p1026
S'Arduino NG or older w/ ATmega168'
p1027
saa(lp1028
S'atmega8'
p1029
a(dp1030
S'build'
p1031
(dp1032
S'core'
p1033
S'arduino'
p1034
sS'mcu'
p1035
S'atmega8'
p1036
sS'f_cpu'
p1037
S'16000000L'
p1038
sS'variant'
p1039
S'standard'
p1040
ssS'bootloader'
p1041
(dp1042
S'high_fuses'
p1043
S'0xca'
p1044
sS'low_fuses'
p1045
S'0xdf'
p1046
sS'lock_bits'
p1047
S'0x0F'
p1048
sS'file'
p1049
S'ATmegaBOOT-prod-firmware-2009-11-07.hex'
p1050
sS'path'
p1051
S'atmega8'
p1052
sS'unlock_bits'
p1053
S'0x3F'
p1054
ssS'upload'
p1055
(dp1056
S'protocol'
p1057
S'arduino'
p1058
sS'maximum_size'
p1059
S'7168'
p1060
sS'speed'
p1061
S'19200'
p1062
ssS'name'
p1063
S'Arduino NG or older w/ ATmega8'
p1064
saa(lp1065
S'robotControl'
p1066
a(dp1067
S'build'
p1068
(dp1069
S'core'
p1070
S'robot'
p1071
sS'f_cpu'
p1072
S'16000000L'
p1073
sS'vid'
p1074
S'0x2341'
p1075
sS'pid'
p1076
S'0x8038'
p1077
sS'variant'
p1078
S'robot_control'
p1079
sS'mcu'
p1080
S'atmega32u4'
p1081
ssS'bootloader'
p1082
(dp1083
S'extended_fuses'
p1084
S'0xcb'
p1085
sS'high_fuses'
p1086
S'0xd8'
p1087
sS'low_fuses'
p1088
S'0xff'
p1089
sS'lock_bits'
p1090
S'0x2F'
p1091
sS'file'
p1092
S'Caterina-Robot-Control.hex'
p1093
sS'path'
p1094
S'caterina-Arduino_Robot'
p1095
sS'unlock_bits'
p1096
S'0x3F'
p1097
ssS'upload'
p1098
(dp1099
S'protocol'
p1100
S'avr109'
p1101
sS'maximum_size'
p1102
S'28672'
p1103
sS'speed'
p1104
S'57600'
p1105
sS'disable_flushing'
p1106
S'true'
p1107
ssS'name'
p1108
S'Arduino Robot Control'
p1109
saa(lp1110
S'robotMotor'
p1111
a(dp1112
S'build'
p1113
(dp1114
S'core'
p1115
S'robot'
p1116
sS'f_cpu'
p1117
S'16000000L'
p1118
sS'vid'
p1119
S'0x2341'
p1120
sS'pid'
p1121
S'0x8039'
p1122
sS'variant'
p1123
S'robot_motor'
p1124
sS'mcu'
p1125
S'atmega32u4'
p1126
ssS'bootloader'
p1127
(dp1128
S'extended_fuses'
p1129
S'0xcb'
p1130
sS'high_fuses'
p1131
S'0xd8'
p1132
sS'low_fuses'
p1133
S'0xff'
p1134
sS'lock_bits'
p1135
S'0x2F'
p1136
sS'file'
p1137
S'Caterina-Robot-Motor.hex'
p1138
sS'path'
p1139
S'caterina-Arduino_Robot'
p1140
sS'unlock_bits'
p1141
S'0x3F'
p1142
ssS'upload'
p1143
(dp1144
S'protocol'
p1145
S'avr109'
p1146
sS'maximum_size'
p1147
S'28672'
p1148
sS'speed'
p1149
S'57600'
p1150
sS'disable_flushing'
p1151
S'true'
p1152
ssS'name'
p1153
S'Arduino Robot Motor'
p1154
saa(lp1155
S'sanguino'
p1156
a(dp1157
S'build'
p1158
(dp1159
S'core'
p1160
S'arduino'
p1161
sS'mcu'
p1162
S'atmega644p'
p1163
sS'f_cpu'
p1164
S'16000000L'
p1165
ssS'bootloader'
p1166
(dp1167
S'extended_fuses'
p1168
S'0xFD'
p1169
sS'high_fuses'
p1170
S'0xDC'
p1171
sS'low_fuses'
p1172
S'0xFF'
p1173
sS'lock_bits'
p1174
S'0x0F'
p1175
sS'file'
p1176
S'ATmegaBOOT_644P.hex'
p1177
sS'path'
p1178
S'atmega644p'
p1179
sS'unlock_bits'
p1180
S'0x3F'
p1181
ssS'upload'
p1182
(dp1183
S'protocol'
p1184
S'stk500'
p1185
sS'maximum_size'
p1186
S'63488'
p1187
sS'speed'
p1188
S'38400'
p1189
ssS'name'
p1190
S'Sanguino'
p1191
saa(lp1192
S'Gen7-644-16'
p1193
a(dp1194
S'build'
p1195
(dp1196
S'core'
p1197
S'arduino'
p1198
sS'mcu'
p1199
S'atmega644'
p1200
sS'f_cpu'
p1201
S'16000000L'
p1202
ssS'bootloader'
p1203
(dp1204
S'extended_fuses'
p1205
S'0xFD'
p1206
sS'high_fuses'
p1207
S'0xD4'
p1208
sS'low_fuses'
p1209
S'0xF7'
p1210
sS'lock_bits'
p1211
S'0x0F'
p1212
sS'file'
p1213
S'bootloader-644-16MHz.hex'
p1214
sS'path'
p1215
S'Gen7'
p1216
sS'unlock_bits'
p1217
S'0x3F'
p1218
ssS'upload'
p1219
(dp1220
S'protocol'
p1221
S'stk500v2'
p1222
sS'maximum_size'
p1223
S'63488'
p1224
sS'speed'
p1225
S'115200'
p1226
ssS'name'
p1227
S'Gen7 with ATmega644 and 16 MHz'
p1228
saa(lp1229
S'Gen7-644-20'
p1230
a(dp1231
S'build'
p1232
(dp1233
S'core'
p1234
S'arduino'
p1235
sS'mcu'
p1236
S'atmega644'
p1237
sS'f_cpu'
p1238
S'20000000L'
p1239
ssS'bootloader'
p1240
(dp1241
S'extended_fuses'
p1242
S'0xFD'
p1243
sS'high_fuses'
p1244
S'0xD4'
p1245
sS'low_fuses'
p1246
S'0xF7'
p1247
sS'lock_bits'
p1248
S'0x0F'
p1249
sS'file'
p1250
S'bootloader-644-20MHz.hex'
p1251
sS'path'
p1252
S'Gen7'
p1253
sS'unlock_bits'
p1254
S'0x3F'
p1255
ssS'upload'
p1256
(dp1257
S'protocol'
p1258
S'stk500v2'
p1259
sS'maximum_size'
p1260
S'63488'
p1261
sS'speed'
p1262
S'115200'
p1263
ssS'name'
p1264
S'Gen7 with ATmega644 and 20 MHz'
p1265
saa(lp1266
S'Gen7-644P-16'
p1267
a(dp1268
S'build'
p1269
(dp1270
S'core'
p1271
S'arduino'
p1272
sS'mcu'
p1273
S'atmega644p'
p1274
sS'f_cpu'
p1275
S'16000000L'
p1276
ssS'bootloader'
p1277
(dp1278
S'extended_fuses'
p1279
S'0xFD'
p1280
sS'high_fuses'
p1281
S'0xD4'
p1282
sS'low_fuses'
p1283
S'0xF7'
p1284
sS'lock_bits'
p1285
S'0x0F'
p1286
sS'file'
p1287
S'bootloader-644P-16MHz.hex'
p1288
sS'path'
p1289
S'Gen7'
p1290
sS'unlock_bits'
p1291
S'0x3F'
p1292
ssS'upload'
p1293
(dp1294
S'protocol'
p1295
S'stk500v2'
p1296
sS'maximum_size'
p1297
S'63488'
p1298
sS'speed'
p1299
S'115200'
p1300
ssS'name'
p1301
S'Gen7 with ATmega644P and 16 MHz'
p1302
saa(lp1303
S'Gen7-644P-20'
p1304
a(dp1305
S'build'
p1306
(dp1307
S'core'
p1308
S'arduino'
p1309
sS'mcu'
p1310
S'atmega644p'
p1311
sS'f_cpu'
p1312
S'20000000L'
p1313
ssS'bootloader'
p1314
(dp1315
S'extended_fuses'
p1316
S'0xFD'
p1317
sS'high_fuses'
p1318
S'0xD4'
p1319
sS'low_fuses'
p1320
S'0xF7'
p1321
sS'lock_bits'
p1322
S'0x0F'
p1323
sS'file'
p1324
S'bootloader-644P-20MHz.hex'
p1325
sS'path'
p1326
S'Gen7'
p1327
sS'unlock_bits'
p1328
S'0x3F'
p1329
ssS'upload'
p1330
(dp1331
S'protocol'
p1332
S'stk500v2'
p1333
sS'maximum_size'
p1334
S'63488'
p1335
sS'speed'
p1336
S'115200'
p1337
ssS'name'
p1338
S'Gen7 with ATmega644P and 20 MHz'
p1339
saa(lp1340
S'Gen7-1284p-16'
p1341
a(dp1342
S'build'
p1343
(dp1344
S'core'
p1345
S'arduino'
p1346
sS'mcu'
p1347
S'atmega1284p'
p1348
sS'f_cpu'
p1349
S'16000000L'
p1350
ssS'bootloader'
p1351
(dp1352
S'extended_fuses'
p1353
S'0xFD'
p1354
sS'high_fuses'
p1355
S'0xD4'
p1356
sS'low_fuses'
p1357
S'0xF7'
p1358
sS'lock_bits'
p1359
S'0x2F'
p1360
sS'file'
p1361
S'bootloader-1284P-16MHz.hex'
p1362
sS'path'
p1363
S'Gen7'
p1364
sS'unlock_bits'
p1365
S'0x3F'
p1366
ssS'upload'
p1367
(dp1368
S'protocol'
p1369
S'stk500v2'
p1370
sS'maximum_size'
p1371
S'129024'
p1372
sS'speed'
p1373
S'115200'
p1374
ssS'name'
p1375
S'Gen7 with ATmega1284 and 16 MHz'
p1376
saa(lp1377
S'Gen7-1284p-20'
p1378
a(dp1379
S'build'
p1380
(dp1381
S'core'
p1382
S'arduino'
p1383
sS'mcu'
p1384
S'atmega1284p'
p1385
sS'f_cpu'
p1386
S'20000000L'
p1387
ssS'bootloader'
p1388
(dp1389
S'extended_fuses'
p1390
S'0xFD'
p1391
sS'high_fuses'
p1392
S'0xD4'
p1393
sS'low_fuses'
p1394
S'0xF7'
p1395
sS'lock_bits'
p1396
S'0x2F'
p1397
sS'file'
p1398
S'bootloader-1284P-16MHz.hex'
p1399
sS'path'
p1400
S'Gen7'
p1401
sS'unlock_bits'
p1402
S'0x3F'
p1403
ssS'upload'
p1404
(dp1405
S'protocol'
p1406
S'stk500v2'
p1407
sS'maximum_size'
p1408
S'129024'
p1409
sS'speed'
p1410
S'115200'
p1411
ssS'name'
p1412
S'Gen7 with ATmega1284 and 20 MHz'
p1413
saa(lp1414
S'attiny84at16'
p1415
a(dp1416
S'build'
p1417
(dp1418
S'core'
p1419
S'tiny'
p1420
sS'mcu'
p1421
S'attiny84'
p1422
sS'f_cpu'
p1423
S'16000000L'
p1424
ssS'bootloader'
p1425
(dp1426
S'low_fuses'
p1427
S'0xFF'
p1428
sS'path'
p1429
S'empty'
p1430
sS'extended_fuses'
p1431
S'0xFF'
p1432
sS'high_fuses'
p1433
S'0xD4'
p1434
sS'file'
p1435
S'empty84at16.hex'
p1436
ssS'upload'
p1437
(dp1438
S'using'
p1439
S'arduino:arduinoisp'
p1440
sS'maximum_size'
p1441
S'8192'
p1442
ssS'name'
p1443
S'ATtiny84 @ 16 MHz  (external crystal; 4.3 V BOD)'
p1444
saa(lp1445
S'attiny84at8'
p1446
a(dp1447
S'build'
p1448
(dp1449
S'core'
p1450
S'tiny'
p1451
sS'mcu'
p1452
S'attiny84'
p1453
sS'f_cpu'
p1454
S'8000000L'
p1455
ssS'bootloader'
p1456
(dp1457
S'low_fuses'
p1458
S'0xE2'
p1459
sS'path'
p1460
S'empty'
p1461
sS'extended_fuses'
p1462
S'0xFF'
p1463
sS'high_fuses'
p1464
S'0xD7'
p1465
sS'file'
p1466
S'empty84at8.hex'
p1467
ssS'upload'
p1468
(dp1469
S'using'
p1470
S'arduino:arduinoisp'
p1471
sS'maximum_size'
p1472
S'8192'
p1473
ssS'name'
p1474
S'ATtiny84 @ 8 MHz  (internal oscillator; BOD disabled)'
p1475
saa(lp1476
S'attiny84at1'
p1477
a(dp1478
S'build'
p1479
(dp1480
S'core'
p1481
S'tiny'
p1482
sS'mcu'
p1483
S'attiny84'
p1484
sS'f_cpu'
p1485
S'1000000L'
p1486
ssS'bootloader'
p1487
(dp1488
S'low_fuses'
p1489
S'0x62'
p1490
sS'path'
p1491
S'empty'
p1492
sS'extended_fuses'
p1493
S'0xFF'
p1494
sS'high_fuses'
p1495
S'0xD7'
p1496
sS'file'
p1497
S'empty84at1.hex'
p1498
ssS'upload'
p1499
(dp1500
S'using'
p1501
S'arduino:arduinoisp'
p1502
sS'maximum_size'
p1503
S'8192'
p1504
ssS'name'
p1505
S'ATtiny84 @ 1 MHz  (internal oscillator; BOD disabled)'
p1506
saa(lp1507
S'attiny44at8'
p1508
a(dp1509
S'build'
p1510
(dp1511
S'core'
p1512
S'tiny'
p1513
sS'mcu'
p1514
S'attiny44'
p1515
sS'f_cpu'
p1516
S'8000000L'
p1517
ssS'bootloader'
p1518
(dp1519
S'low_fuses'
p1520
S'0xE2'
p1521
sS'path'
p1522
S'empty'
p1523
sS'extended_fuses'
p1524
S'0xFF'
p1525
sS'high_fuses'
p1526
S'0xD7'
p1527
sS'file'
p1528
S'empty44at8.hex'
p1529
ssS'upload'
p1530
(dp1531
S'using'
p1532
S'arduino:arduinoisp'
p1533
sS'maximum_size'
p1534
S'4096'
p1535
ssS'name'
p1536
S'ATtiny44 @ 8 MHz  (internal oscillator; BOD disabled)'
p1537
saa(lp1538
S'attiny44at1'
p1539
a(dp1540
S'build'
p1541
(dp1542
S'core'
p1543
S'tiny'
p1544
sS'mcu'
p1545
S'attiny44'
p1546
sS'f_cpu'
p1547
S'1000000L'
p1548
ssS'bootloader'
p1549
(dp1550
S'low_fuses'
p1551
S'0x62'
p1552
sS'path'
p1553
S'empty'
p1554
sS'extended_fuses'
p1555
S'0xFF'
p1556
sS'high_fuses'
p1557
S'0xD7'
p1558
sS'file'
p1559
S'empty44at1.hex'
p1560
ssS'upload'
p1561
(dp1562
S'using'
p1563
S'arduino:arduinoisp'
p1564
sS'maximum_size'
p1565
S'4096'
p1566
ssS'name'
p1567
S'ATtiny44 @ 1 MHz  (internal oscillator; BOD disabled)'
p1568
saa(lp1569
S'attiny24at16'
p1570
a(dp1571
S'build'
p1572
(dp1573
S'core'
p1574
S'tiny'
p1575
sS'mcu'
p1576
S'attiny24'
p1577
sS'f_cpu'
p1578
S'16000000L'
p1579
ssS'bootloader'
p1580
(dp1581
S'low_fuses'
p1582
S'0xFF'
p1583
sS'path'
p1584
S'empty'
p1585
sS'extended_fuses'
p1586
S'0xFF'
p1587
sS'high_fuses'
p1588
S'0xD7'
p1589
sS'file'
p1590
S'empty24at16.hex'
p1591
ssS'upload'
p1592
(dp1593
S'using'
p1594
S'arduino:arduinoisp'
p1595
sS'maximum_size'
p1596
S'2048'
p1597
ssS'name'
p1598
S'ATtiny24 @ 16 MHz  (external crystal; BOD disabled)'
p1599
saa(lp1600
S'attiny85at16e'
p1601
a(dp1602
S'build'
p1603
(dp1604
S'core'
p1605
S'tiny'
p1606
sS'mcu'
p1607
S'attiny85'
p1608
sS'f_cpu'
p1609
S'16000000L'
p1610
ssS'bootloader'
p1611
(dp1612
S'low_fuses'
p1613
S'0xFF'
p1614
sS'path'
p1615
S'empty'
p1616
sS'extended_fuses'
p1617
S'0xFF'
p1618
sS'high_fuses'
p1619
S'0xD4'
p1620
sS'file'
p1621
S'empty85at16.hex'
p1622
ssS'upload'
p1623
(dp1624
S'using'
p1625
S'arduino:arduinoisp'
p1626
sS'maximum_size'
p1627
S'8192'
p1628
ssS'name'
p1629
S'ATtiny85 @ 16 MHz  (external crystal; 4.3 V BOD)'
p1630
saa(lp1631
S'attiny85at16p'
p1632
a(dp1633
S'build'
p1634
(dp1635
S'core'
p1636
S'tiny'
p1637
sS'mcu'
p1638
S'attiny85'
p1639
sS'f_cpu'
p1640
S'16000000L'
p1641
ssS'bootloader'
p1642
(dp1643
S'low_fuses'
p1644
S'0xC1'
p1645
sS'path'
p1646
S'empty'
p1647
sS'extended_fuses'
p1648
S'0xFF'
p1649
sS'high_fuses'
p1650
S'0xD4'
p1651
sS'file'
p1652
S'empty85at16.hex'
p1653
ssS'upload'
p1654
(dp1655
S'using'
p1656
S'arduino:arduinoisp'
p1657
sS'maximum_size'
p1658
S'8192'
p1659
ssS'name'
p1660
S'ATtiny85 @ 16 MHz  (internal PLL; 4.3 V BOD)'
p1661
saa(lp1662
S'attiny85at8'
p1663
a(dp1664
S'build'
p1665
(dp1666
S'core'
p1667
S'tiny'
p1668
sS'mcu'
p1669
S'attiny85'
p1670
sS'f_cpu'
p1671
S'8000000L'
p1672
ssS'bootloader'
p1673
(dp1674
S'low_fuses'
p1675
S'0xE2'
p1676
sS'path'
p1677
S'empty'
p1678
sS'extended_fuses'
p1679
S'0xFF'
p1680
sS'high_fuses'
p1681
S'0xD7'
p1682
sS'file'
p1683
S'empty85at8.hex'
p1684
ssS'upload'
p1685
(dp1686
S'using'
p1687
S'arduino:arduinoisp'
p1688
sS'maximum_size'
p1689
S'8192'
p1690
ssS'name'
p1691
S'ATtiny85 @ 8 MHz  (internal oscillator; BOD disabled)'
p1692
saa(lp1693
S'attiny85at1'
p1694
a(dp1695
S'build'
p1696
(dp1697
S'core'
p1698
S'tiny'
p1699
sS'mcu'
p1700
S'attiny85'
p1701
sS'f_cpu'
p1702
S'1000000L'
p1703
ssS'bootloader'
p1704
(dp1705
S'low_fuses'
p1706
S'0x62'
p1707
sS'path'
p1708
S'empty'
p1709
sS'extended_fuses'
p1710
S'0xFF'
p1711
sS'high_fuses'
p1712
S'0xD7'
p1713
sS'file'
p1714
S'empty85at1.hex'
p1715
ssS'upload'
p1716
(dp1717
S'using'
p1718
S'arduino:arduinoisp'
p1719
sS'maximum_size'
p1720
S'8192'
p1721
ssS'name'
p1722
S'ATtiny85 @ 1 MHz  (internal oscillator; BOD disabled)'
p1723
saa(lp1724
S'attiny45at8'
p1725
a(dp1726
S'build'
p1727
(dp1728
S'core'
p1729
S'tiny'
p1730
sS'mcu'
p1731
S'attiny45'
p1732
sS'f_cpu'
p1733
S'8000000L'
p1734
ssS'bootloader'
p1735
(dp1736
S'low_fuses'
p1737
S'0xE2'
p1738
sS'path'
p1739
S'empty'
p1740
sS'extended_fuses'
p1741
S'0xFF'
p1742
sS'high_fuses'
p1743
S'0xD7'
p1744
sS'file'
p1745
S'empty45at8.hex'
p1746
ssS'upload'
p1747
(dp1748
S'using'
p1749
S'arduino:arduinoisp'
p1750
sS'maximum_size'
p1751
S'4096'
p1752
ssS'name'
p1753
S'ATtiny45 @ 8 MHz'
p1754
saa(lp1755
S'attiny45at1'
p1756
a(dp1757
S'build'
p1758
(dp1759
S'core'
p1760
S'tiny'
p1761
sS'mcu'
p1762
S'attiny45'
p1763
sS'f_cpu'
p1764
S'1000000L'
p1765
ssS'bootloader'
p1766
(dp1767
S'low_fuses'
p1768
S'0x62'
p1769
sS'path'
p1770
S'empty'
p1771
sS'extended_fuses'
p1772
S'0xFF'
p1773
sS'high_fuses'
p1774
S'0xD7'
p1775
sS'file'
p1776
S'empty45at1.hex'
p1777
ssS'upload'
p1778
(dp1779
S'using'
p1780
S'arduino:arduinoisp'
p1781
sS'maximum_size'
p1782
S'4096'
p1783
ssS'name'
p1784
S'ATtiny45 @ 1 MHz'
p1785
saa(lp1786
S'attiny85at128'
p1787
a(dp1788
S'build'
p1789
(dp1790
S'core'
p1791
S'tiny'
p1792
sS'mcu'
p1793
S'attiny85'
p1794
sS'f_cpu'
p1795
S'128000L'
p1796
ssS'bootloader'
p1797
(dp1798
S'low_fuses'
p1799
S'0xC4'
p1800
sS'path'
p1801
S'empty'
p1802
sS'extended_fuses'
p1803
S'0xFF'
p1804
sS'high_fuses'
p1805
S'0xD6'
p1806
sS'file'
p1807
S'empty85at1.hex'
p1808
ssS'upload'
p1809
(dp1810
S'using'
p1811
S'arduino:arduinoisp'
p1812
sS'maximum_size'
p1813
S'8192'
p1814
ssS'name'
p1815
S'ATtiny85 @ 128 KHz  (watchdog oscillator; 1.8 V BOD)'
p1816
saa(lp1817
S'attiny25at8'
p1818
a(dp1819
S'build'
p1820
(dp1821
S'core'
p1822
S'tiny'
p1823
sS'mcu'
p1824
S'attiny25'
p1825
sS'f_cpu'
p1826
S'8000000L'
p1827
ssS'bootloader'
p1828
(dp1829
S'low_fuses'
p1830
S'0xE2'
p1831
sS'path'
p1832
S'empty'
p1833
sS'extended_fuses'
p1834
S'0xFF'
p1835
sS'high_fuses'
p1836
S'0xD7'
p1837
sS'file'
p1838
S'empty25at8.hex'
p1839
ssS'upload'
p1840
(dp1841
S'using'
p1842
S'arduino:arduinoisp'
p1843
sS'maximum_size'
p1844
S'2048'
p1845
ssS'name'
p1846
S'ATtiny25 @ 8 MHz'
p1847
saa(lp1848
S'attiny25at1'
p1849
a(dp1850
S'build'
p1851
(dp1852
S'core'
p1853
S'tiny'
p1854
sS'mcu'
p1855
S'attiny25'
p1856
sS'f_cpu'
p1857
S'1000000L'
p1858
ssS'bootloader'
p1859
(dp1860
S'low_fuses'
p1861
S'0x62'
p1862
sS'path'
p1863
S'empty'
p1864
sS'extended_fuses'
p1865
S'0xFF'
p1866
sS'high_fuses'
p1867
S'0xD7'
p1868
sS'file'
p1869
S'empty25at1.hex'
p1870
ssS'upload'
p1871
(dp1872
S'using'
p1873
S'arduino:arduinoisp'
p1874
sS'maximum_size'
p1875
S'2048'
p1876
ssS'name'
p1877
S'ATtiny25 @ 1 MHz'
p1878
saa(lp1879
S'attiny4313at8'
p1880
a(dp1881
S'build'
p1882
(dp1883
S'core'
p1884
S'tiny'
p1885
sS'mcu'
p1886
S'attiny4313'
p1887
sS'f_cpu'
p1888
S'8000000L'
p1889
ssS'bootloader'
p1890
(dp1891
S'low_fuses'
p1892
S'0xE4'
p1893
sS'path'
p1894
S'empty'
p1895
sS'extended_fuses'
p1896
S'0xFF'
p1897
sS'high_fuses'
p1898
S'0x9F'
p1899
sS'file'
p1900
S'empty4313at8.hex'
p1901
ssS'upload'
p1902
(dp1903
S'using'
p1904
S'arduino:arduinoisp'
p1905
sS'maximum_size'
p1906
S'4096'
p1907
ssS'name'
p1908
S'ATtiny4313 @ 8 MHz'
p1909
saa(lp1910
S'attiny4313at1'
p1911
a(dp1912
S'build'
p1913
(dp1914
S'core'
p1915
S'tiny'
p1916
sS'mcu'
p1917
S'attiny4313'
p1918
sS'f_cpu'
p1919
S'1000000L'
p1920
ssS'bootloader'
p1921
(dp1922
S'low_fuses'
p1923
S'0x64'
p1924
sS'path'
p1925
S'empty'
p1926
sS'extended_fuses'
p1927
S'0xFF'
p1928
sS'high_fuses'
p1929
S'0x9F'
p1930
sS'file'
p1931
S'empty4313at1.hex'
p1932
ssS'upload'
p1933
(dp1934
S'using'
p1935
S'arduino:arduinoisp'
p1936
sS'maximum_size'
p1937
S'4096'
p1938
ssS'name'
p1939
S'ATtiny4313 @ 1 MHz'
p1940
saa(lp1941
S'attiny2313at8'
p1942
a(dp1943
S'build'
p1944
(dp1945
S'core'
p1946
S'tiny'
p1947
sS'mcu'
p1948
S'attiny2313'
p1949
sS'f_cpu'
p1950
S'8000000L'
p1951
ssS'bootloader'
p1952
(dp1953
S'low_fuses'
p1954
S'0xE4'
p1955
sS'path'
p1956
S'empty'
p1957
sS'extended_fuses'
p1958
S'0xFF'
p1959
sS'high_fuses'
p1960
S'0x9F'
p1961
sS'file'
p1962
S'empty2313at8.hex'
p1963
ssS'upload'
p1964
(dp1965
S'using'
p1966
S'arduino:arduinoisp'
p1967
sS'maximum_size'
p1968
S'2048'
p1969
ssS'name'
p1970
S'ATtiny2313 @ 8 MHz'
p1971
saa(lp1972
S'attiny2313at1'
p1973
a(dp1974
S'build'
p1975
(dp1976
S'core'
p1977
S'tiny'
p1978
sS'mcu'
p1979
S'attiny2313'
p1980
sS'f_cpu'
p1981
S'1000000L'
p1982
ssS'bootloader'
p1983
(dp1984
S'low_fuses'
p1985
S'0x64'
p1986
sS'path'
p1987
S'empty'
p1988
sS'extended_fuses'
p1989
S'0xFF'
p1990
sS'high_fuses'
p1991
S'0x9F'
p1992
sS'file'
p1993
S'empty2313at1.hex'
p1994
ssS'upload'
p1995
(dp1996
S'using'
p1997
S'arduino:arduinoisp'
p1998
sS'maximum_size'
p1999
S'2048'
p2000
ssS'name'
p2001
S'ATtiny2313 @ 1 MHz'
p2002
saa(lp2003
S'attiny45'
p2004
a(dp2005
S'build'
p2006
(dp2007
S'core'
p2008
S'arduino:arduino'
p2009
sS'mcu'
p2010
S'attiny45'
p2011
sS'f_cpu'
p2012
S'1000000L'
p2013
sS'variant'
p2014
S'tiny8'
p2015
ssS'bootloader'
p2016
(dp2017
S'low_fuses'
p2018
S'0x62'
p2019
sS'extended_fuses'
p2020
S'0xff'
p2021
sS'high_fuses'
p2022
S'0xdf'
p2023
ssS'upload'
p2024
(dp2025
S'maximum_size'
p2026
S'4096'
p2027
ssS'name'
p2028
S'ATtiny45 (internal 1 MHz clock)'
p2029
saa(lp2030
S'attiny45-8'
p2031
a(dp2032
S'build'
p2033
(dp2034
S'core'
p2035
S'arduino:arduino'
p2036
sS'mcu'
p2037
S'attiny45'
p2038
sS'f_cpu'
p2039
S'8000000L'
p2040
sS'variant'
p2041
S'tiny8'
p2042
ssS'bootloader'
p2043
(dp2044
S'low_fuses'
p2045
S'0xe2'
p2046
sS'extended_fuses'
p2047
S'0xff'
p2048
sS'high_fuses'
p2049
S'0xdf'
p2050
ssS'upload'
p2051
(dp2052
S'maximum_size'
p2053
S'4096'
p2054
ssS'name'
p2055
S'ATtiny45 (internal 8 MHz clock)'
p2056
saa(lp2057
S'attiny45-20'
p2058
a(dp2059
S'build'
p2060
(dp2061
S'core'
p2062
S'arduino:arduino'
p2063
sS'mcu'
p2064
S'attiny45'
p2065
sS'f_cpu'
p2066
S'20000000L'
p2067
sS'variant'
p2068
S'tiny8'
p2069
ssS'bootloader'
p2070
(dp2071
S'low_fuses'
p2072
S'0xfe'
p2073
sS'extended_fuses'
p2074
S'0xff'
p2075
sS'high_fuses'
p2076
S'0xdf'
p2077
ssS'upload'
p2078
(dp2079
S'maximum_size'
p2080
S'4096'
p2081
ssS'name'
p2082
S'ATtiny45 (external 20 MHz clock)'
p2083
saa(lp2084
S'attiny85'
p2085
a(dp2086
S'build'
p2087
(dp2088
S'core'
p2089
S'arduino:arduino'
p2090
sS'mcu'
p2091
S'attiny85'
p2092
sS'f_cpu'
p2093
S'1000000L'
p2094
sS'variant'
p2095
S'tiny8'
p2096
ssS'bootloader'
p2097
(dp2098
S'low_fuses'
p2099
S'0x62'
p2100
sS'extended_fuses'
p2101
S'0xff'
p2102
sS'high_fuses'
p2103
S'0xdf'
p2104
ssS'upload'
p2105
(dp2106
S'maximum_size'
p2107
S'8192'
p2108
ssS'name'
p2109
S'ATtiny85 (internal 1 MHz clock)'
p2110
saa(lp2111
S'attiny85-8'
p2112
a(dp2113
S'build'
p2114
(dp2115
S'core'
p2116
S'arduino:arduino'
p2117
sS'mcu'
p2118
S'attiny85'
p2119
sS'f_cpu'
p2120
S'8000000L'
p2121
sS'variant'
p2122
S'tiny8'
p2123
ssS'bootloader'
p2124
(dp2125
S'low_fuses'
p2126
S'0xe2'
p2127
sS'extended_fuses'
p2128
S'0xff'
p2129
sS'high_fuses'
p2130
S'0xdf'
p2131
ssS'upload'
p2132
(dp2133
S'maximum_size'
p2134
S'8192'
p2135
ssS'name'
p2136
S'ATtiny85 (internal 8 MHz clock)'
p2137
saa(lp2138
S'attiny85-20'
p2139
a(dp2140
S'build'
p2141
(dp2142
S'core'
p2143
S'arduino:arduino'
p2144
sS'mcu'
p2145
S'attiny85'
p2146
sS'f_cpu'
p2147
S'20000000L'
p2148
sS'variant'
p2149
S'tiny8'
p2150
ssS'bootloader'
p2151
(dp2152
S'low_fuses'
p2153
S'0xfe'
p2154
sS'extended_fuses'
p2155
S'0xff'
p2156
sS'high_fuses'
p2157
S'0xdf'
p2158
ssS'upload'
p2159
(dp2160
S'maximum_size'
p2161
S'8192'
p2162
ssS'name'
p2163
S'ATtiny85 (external 20 MHz clock)'
p2164
saa(lp2165
S'attiny44'
p2166
a(dp2167
S'build'
p2168
(dp2169
S'core'
p2170
S'arduino:arduino'
p2171
sS'mcu'
p2172
S'attiny44'
p2173
sS'f_cpu'
p2174
S'1000000L'
p2175
sS'variant'
p2176
S'tiny14'
p2177
ssS'bootloader'
p2178
(dp2179
S'low_fuses'
p2180
S'0x62'
p2181
sS'extended_fuses'
p2182
S'0xff'
p2183
sS'high_fuses'
p2184
S'0xdf'
p2185
ssS'upload'
p2186
(dp2187
S'maximum_size'
p2188
S'4096'
p2189
ssS'name'
p2190
S'ATtiny44 (internal 1 MHz clock)'
p2191
saa(lp2192
S'attiny44-8'
p2193
a(dp2194
S'build'
p2195
(dp2196
S'core'
p2197
S'arduino:arduino'
p2198
sS'mcu'
p2199
S'attiny44'
p2200
sS'f_cpu'
p2201
S'8000000L'
p2202
sS'variant'
p2203
S'tiny14'
p2204
ssS'bootloader'
p2205
(dp2206
S'low_fuses'
p2207
S'0xe2'
p2208
sS'extended_fuses'
p2209
S'0xff'
p2210
sS'high_fuses'
p2211
S'0xdf'
p2212
ssS'upload'
p2213
(dp2214
S'maximum_size'
p2215
S'4096'
p2216
ssS'name'
p2217
S'ATtiny44 (internal 8 MHz clock)'
p2218
saa(lp2219
S'attiny44-20'
p2220
a(dp2221
S'build'
p2222
(dp2223
S'core'
p2224
S'arduino:arduino'
p2225
sS'mcu'
p2226
S'attiny44'
p2227
sS'f_cpu'
p2228
S'20000000L'
p2229
sS'variant'
p2230
S'tiny14'
p2231
ssS'bootloader'
p2232
(dp2233
S'low_fuses'
p2234
S'0xfe'
p2235
sS'extended_fuses'
p2236
S'0xff'
p2237
sS'high_fuses'
p2238
S'0xdf'
p2239
ssS'upload'
p2240
(dp2241
S'maximum_size'
p2242
S'4096'
p2243
ssS'name'
p2244
S'ATtiny44 (external 20 MHz clock)'
p2245
saa(lp2246
S'attiny84'
p2247
a(dp2248
S'build'
p2249
(dp2250
S'core'
p2251
S'arduino:arduino'
p2252
sS'mcu'
p2253
S'attiny84'
p2254
sS'f_cpu'
p2255
S'1000000L'
p2256
sS'variant'
p2257
S'tiny14'
p2258
ssS'bootloader'
p2259
(dp2260
S'low_fuses'
p2261
S'0x62'
p2262
sS'extended_fuses'
p2263
S'0xff'
p2264
sS'high_fuses'
p2265
S'0xdf'
p2266
ssS'upload'
p2267
(dp2268
S'maximum_size'
p2269
S'8192'
p2270
ssS'name'
p2271
S'ATtiny84 (internal 1 MHz clock)'
p2272
saa(lp2273
S'attiny84-8'
p2274
a(dp2275
S'build'
p2276
(dp2277
S'core'
p2278
S'arduino:arduino'
p2279
sS'mcu'
p2280
S'attiny84'
p2281
sS'f_cpu'
p2282
S'8000000L'
p2283
sS'variant'
p2284
S'tiny14'
p2285
ssS'bootloader'
p2286
(dp2287
S'low_fuses'
p2288
S'0xe2'
p2289
sS'extended_fuses'
p2290
S'0xff'
p2291
sS'high_fuses'
p2292
S'0xdf'
p2293
ssS'upload'
p2294
(dp2295
S'maximum_size'
p2296
S'8192'
p2297
ssS'name'
p2298
S'ATtiny84 (internal 8 MHz clock)'
p2299
saa(lp2300
S'attiny84-20'
p2301
a(dp2302
S'build'
p2303
(dp2304
S'core'
p2305
S'arduino:arduino'
p2306
sS'mcu'
p2307
S'attiny84'
p2308
sS'f_cpu'
p2309
S'20000000L'
p2310
sS'variant'
p2311
S'tiny14'
p2312
ssS'bootloader'
p2313
(dp2314
S'low_fuses'
p2315
S'0xfe'
p2316
sS'extended_fuses'
p2317
S'0xff'
p2318
sS'high_fuses'
p2319
S'0xdf'
p2320
ssS'upload'
p2321
(dp2322
S'maximum_size'
p2323
S'8192'
p2324
ssS'name'
p2325
S'ATtiny84 (external 20 MHz clock)'
p2326
saatp2327
Rp2328
(dp2329
S'default'
p2330
S'uno'
p2331
sbtp2332
a(S'used_libs'
p2333
(lp2334
S'/Applications/Arduino.app/Contents/Resources/Java/hardware/arduino/cores/arduino'
p2335
atp2336
a(S'make'
p2337
S'/Applications/Arduino.app/Contents/Resources/Java/hardware/tools/avr/bin/make'
p2338
tp2339
a(S'arduino_libraries_dir'
p2340
S'/Applications/Arduino.app/Contents/Resources/Java/libraries'
p2341
tp2342
a(S'cc'
p2343
S'/Applications/Arduino.app/Contents/Resources/Java/hardware/tools/avr/bin/avr-gcc'
p2344
tp2345
a(S'cflags'
p2346
g2
(g3
g4
(lp2347
tp2348
Rp2349
tp2350
a(S'cxxflags'
p2351
g2
(g3
g4
(lp2352
S'-fno-exceptions'
p2353
atp2354
Rp2355
tp2356
a(S'arduino_variants_dir'
p2357
S'/Applications/Arduino.app/Contents/Resources/Java/hardware/arduino/variants'
p2358
tp2359
a(S'stty'
p2360
S'/bin/stty'
p2361
tp2362
a(S'version.txt'
p2363
S'/Applications/Arduino.app/Contents/Resources/Java/lib/version.txt'
p2364
tp2365
a(S'arduino_core_dir'
p2366
g2335
tp2367
a(S'boards.txt'
p2368
S'/Applications/Arduino.app/Contents/Resources/Java/hardware/arduino/boards.txt'
p2369
tp2370
a(S'avrdude.conf'
p2371
S'/Applications/Arduino.app/Contents/Resources/Java/hardware/tools/avr/etc/avrdude.conf'
p2372
tp2373
a(S'deps'
p2374
g2
(g3
g4
(lp2375
S'.build/uno/src/dependencies.d'
p2376
aS'.build/uno/arduino/dependencies.d'
p2377
atp2378
Rp2379
tp2380
a.